Certificate:
    Data:
        Version: 1 (0x0)
        Serial Number: 1 (0x1)
    Signature Algorithm: sha512WithRSAEncryption
        Issuer: C=US, ST=CA, O=Open vSwitch, OU=switchca, CN=OVS switchca CA Certificate (2018 Thg 10 13 16:50:05)
        Validity
            Not Before: Oct 13 09:50:06 2018 GMT
            Not After : Oct 10 09:50:06 2028 GMT
        Subject: C=US, ST=CA, O=Open vSwitch, OU=switchca, CN=OVS switchca CA Certificate (2018 Thg 10 13 16:50:05)
        Subject Public Key Info:
            Public Key Algorithm: rsaEncryption
                Public-Key: (2048 bit)
                Modulus:
                    00:e7:58:94:f4:f2:da:fa:f4:86:6f:cd:e4:bc:33:
                    b0:af:f0:b5:2f:b4:96:60:f2:6a:a0:bf:4a:1f:f7:
                    16:f7:e4:51:e9:0f:e5:ff:74:a1:fa:ce:9a:84:9b:
                    99:2c:22:99:8e:48:6c:23:df:2f:e0:5f:ae:f5:da:
                    6f:9c:cd:0a:31:a9:7f:f3:aa:78:c0:29:aa:0b:e0:
                    f5:ca:71:9d:df:6b:2e:13:cc:71:b8:5c:3b:27:79:
                    b4:b0:35:5b:4b:d2:12:8c:79:7e:23:ea:fe:90:5f:
                    2c:2c:02:4a:87:c7:af:66:7c:73:5a:8a:95:1b:6a:
                    1b:24:2b:60:a8:17:19:11:99:eb:e3:d2:7f:6b:3d:
                    82:19:59:a0:c6:e9:24:ff:d4:78:58:65:a2:f0:f1:
                    ed:07:b1:dc:7c:ea:08:a4:43:ad:ec:e8:d6:ce:b4:
                    fb:2b:b9:3d:de:46:05:8e:c1:22:9d:f0:e0:1f:87:
                    c0:49:36:ba:f1:7a:b3:9f:a4:d1:88:8d:e0:33:c8:
                    4c:28:1b:43:5a:3b:f1:b6:48:ee:12:f9:8d:c2:a7:
                    2b:b1:04:50:d2:60:e3:9d:2b:35:82:1a:dd:04:35:
                    5b:e5:0c:22:6e:0e:1f:b7:4d:ba:13:49:8e:a3:8d:
                    e9:4f:41:94:1e:64:ac:61:ef:a9:ba:b3:82:b5:2d:
                    64:59
                Exponent: 65537 (0x10001)
    Signature Algorithm: sha512WithRSAEncryption
         5a:84:2f:6b:86:b4:5e:a1:b4:66:b9:b6:3f:cb:1f:51:28:71:
         c4:c6:34:fc:4a:f4:5e:44:95:2b:8c:f2:18:cb:d5:b6:55:15:
         af:38:05:35:21:2b:61:dc:43:ae:95:f0:99:29:46:21:51:39:
         62:85:2e:69:e2:c3:7a:e2:e6:88:da:35:0e:fd:3b:5c:d9:6c:
         ef:f4:83:99:2d:e4:74:a3:7c:e8:6a:dc:5e:eb:ff:9e:8e:d8:
         ec:66:02:24:31:2b:7f:55:71:19:31:6c:c8:89:83:fd:5a:89:
         34:02:19:a8:f4:9d:8d:7f:3b:e2:55:ae:1e:b9:78:9a:4d:b2:
         df:36:8b:2d:26:20:d9:0b:2b:ad:0c:f5:26:c7:38:78:69:fb:
         89:5c:5a:27:0d:61:9c:18:57:cc:c2:02:6d:55:15:b4:88:1d:
         fe:cd:8b:be:06:12:91:d6:03:fa:8f:77:bf:38:64:3c:3c:bc:
         7b:9d:b8:92:d9:02:df:25:89:50:00:65:d2:bf:5a:ca:29:31:
         26:df:16:89:02:29:e1:3b:14:91:41:b0:56:c8:c6:a7:15:97:
         4b:43:b8:17:69:d1:4d:78:ee:55:ba:1f:d5:70:f3:1c:c0:6c:
         d1:42:2e:f7:55:30:33:eb:15:97:ca:a9:5a:8c:b9:c6:23:4f:
         ec:b9:09:2d
-----BEGIN CERTIFICATE-----
MIIDfjCCAmYCAQEwDQYJKoZIhvcNAQENBQAwgYQxCzAJBgNVBAYTAlVTMQswCQYD
VQQIDAJDQTEVMBMGA1UECgwMT3BlbiB2U3dpdGNoMREwDwYDVQQLDAhzd2l0Y2hj
YTE+MDwGA1UEAww1T1ZTIHN3aXRjaGNhIENBIENlcnRpZmljYXRlICgyMDE4IFRo
ZyAxMCAxMyAxNjo1MDowNSkwHhcNMTgxMDEzMDk1MDA2WhcNMjgxMDEwMDk1MDA2
WjCBhDELMAkGA1UEBhMCVVMxCzAJBgNVBAgMAkNBMRUwEwYDVQQKDAxPcGVuIHZT
d2l0Y2gxETAPBgNVBAsMCHN3aXRjaGNhMT4wPAYDVQQDDDVPVlMgc3dpdGNoY2Eg
Q0EgQ2VydGlmaWNhdGUgKDIwMTggVGhnIDEwIDEzIDE2OjUwOjA1KTCCASIwDQYJ
KoZIhvcNAQEBBQADggEPADCCAQoCggEBAOdYlPTy2vr0hm/N5LwzsK/wtS+0lmDy
aqC/Sh/3FvfkUekP5f90ofrOmoSbmSwimY5IbCPfL+BfrvXab5zNCjGpf/OqeMAp
qgvg9cpxnd9rLhPMcbhcOyd5tLA1W0vSEox5fiPq/pBfLCwCSofHr2Z8c1qKlRtq
GyQrYKgXGRGZ6+PSf2s9ghlZoMbpJP/UeFhlovDx7Qex3HzqCKRDrezo1s60+yu5
Pd5GBY7BIp3w4B+HwEk2uvF6s5+k0YiN4DPITCgbQ1o78bZI7hL5jcKnK7EEUNJg
450rNYIa3QQ1W+UMIm4OH7dNuhNJjqON6U9BlB5krGHvqbqzgrUtZFkCAwEAATAN
BgkqhkiG9w0BAQ0FAAOCAQEAWoQva4a0XqG0Zrm2P8sfUShxxMY0/Er0XkSVK4zy
GMvVtlUVrzgFNSErYdxDrpXwmSlGIVE5YoUuaeLDeuLmiNo1Dv07XNls7/SDmS3k
dKN86GrcXuv/no7Y7GYCJDErf1VxGTFsyImD/VqJNAIZqPSdjX874lWuHrl4mk2y
3zaLLSYg2QsrrQz1Jsc4eGn7iVxaJw1hnBhXzMICbVUVtIgd/s2LvgYSkdYD+o93
vzhkPDy8e524ktkC3yWJUABl0r9ayikxJt8WiQIp4TsUkUGwVsjGpxWXS0O4F2nR
TXjuVbof1XDzHMBs0UIu91UwM+sVl8qpWoy5xiNP7LkJLQ==
-----END CERTIFICATE-----
