Certificate:
    Data:
        Version: 1 (0x0)
        Serial Number: 2 (0x2)
    Signature Algorithm: sha512WithRSAEncryption
        Issuer: C=US, ST=CA, O=Open vSwitch, OU=switchca, CN=OVS switchca CA Certificate (2018 Thg 10 13 16:50:05)
        Validity
            Not Before: Oct 13 09:50:06 2018 GMT
            Not After : Oct 10 09:50:06 2028 GMT
        Subject: C=US, ST=CA, O=Open vSwitch, OU=Open vSwitch certifier, CN=tests/pki/test id:77bfb17a-a720-4c38-92b7-766017764434
        Subject Public Key Info:
            Public Key Algorithm: rsaEncryption
                Public-Key: (2048 bit)
                Modulus:
                    00:a1:be:44:74:bb:15:fb:2c:99:04:d4:4f:fc:67:
                    24:44:90:4b:8d:40:1f:2b:93:f6:38:3b:a4:43:48:
                    c1:21:54:a3:82:91:91:87:2d:a0:47:57:df:ca:3e:
                    80:09:e9:b2:36:5c:b7:e2:10:20:38:08:25:a5:65:
                    47:f5:87:a5:d1:4e:ed:a1:51:37:7f:88:0d:d6:11:
                    76:b2:fa:d2:06:c9:a5:41:3c:68:73:72:4c:61:29:
                    7f:38:1d:d1:c6:b7:f2:85:35:a4:01:f0:aa:c5:c4:
                    78:54:50:3a:9c:f3:6c:76:36:b9:c9:0b:7c:8e:7b:
                    c4:2a:8b:22:76:e5:00:b2:b1:c9:be:c5:69:24:49:
                    90:e3:38:cf:9d:6a:ec:5e:db:a6:3c:5e:48:a4:5d:
                    16:32:45:12:89:3b:c6:15:43:8b:27:c5:c5:08:d5:
                    2c:ec:dc:e2:69:b3:23:88:9c:60:89:03:87:11:88:
                    d3:b0:89:28:a3:11:4c:9f:f1:ed:f4:7e:25:fc:ed:
                    f4:0e:f4:12:21:fa:9b:d4:0e:0b:d2:d2:e6:62:65:
                    d7:a2:09:d2:59:f8:5e:31:a9:a0:89:c8:ce:02:b7:
                    95:f4:67:4c:75:21:d2:c0:66:72:a6:14:e5:d9:2e:
                    3e:14:4f:1c:2a:6f:18:94:e1:89:a0:ca:0a:44:70:
                    e7:79
                Exponent: 65537 (0x10001)
    Signature Algorithm: sha512WithRSAEncryption
         cb:75:36:80:1b:45:44:1a:b4:d3:c0:0a:92:f8:cb:4d:65:8d:
         25:c3:30:18:66:a0:fc:49:46:97:d9:45:dc:4a:07:e8:ff:18:
         31:00:5a:85:59:64:52:34:6b:b9:16:e9:87:d4:00:e2:cc:17:
         52:05:59:c6:84:25:30:05:81:bf:77:1d:9c:43:fe:3a:40:5e:
         04:aa:c9:62:65:1d:ae:58:08:20:b5:d4:d1:fc:fd:af:dd:05:
         6b:99:0e:c2:50:4f:cc:d5:aa:03:39:ed:2b:5e:54:02:d9:57:
         50:16:0a:76:90:3b:98:30:76:ac:d6:8f:37:33:8f:9c:c5:ed:
         2e:c0:5c:a7:70:92:65:1f:b3:84:25:6a:0d:65:38:c9:51:c4:
         bb:56:c1:75:8c:f7:c7:b1:5e:1c:7d:37:a5:76:11:e0:e0:81:
         21:75:7c:cc:e7:73:3e:12:7e:58:20:72:f2:fd:75:25:7c:be:
         c2:37:1a:36:d5:9c:0e:5f:13:1a:37:68:d1:b0:24:3d:b9:88:
         07:d7:24:ce:d3:77:9a:70:74:90:0d:b3:98:40:23:34:29:b0:
         69:72:58:51:30:e3:f9:00:24:9c:1d:69:9f:1e:b6:00:fe:76:
         1a:a2:ed:a9:5d:55:4d:c3:1c:79:0d:35:00:f0:1a:39:9d:e0:
         bf:3c:ee:96
-----BEGIN CERTIFICATE-----
MIIDjTCCAnUCAQIwDQYJKoZIhvcNAQENBQAwgYQxCzAJBgNVBAYTAlVTMQswCQYD
VQQIDAJDQTEVMBMGA1UECgwMT3BlbiB2U3dpdGNoMREwDwYDVQQLDAhzd2l0Y2hj
YTE+MDwGA1UEAww1T1ZTIHN3aXRjaGNhIENBIENlcnRpZmljYXRlICgyMDE4IFRo
ZyAxMCAxMyAxNjo1MDowNSkwHhcNMTgxMDEzMDk1MDA2WhcNMjgxMDEwMDk1MDA2
WjCBkzELMAkGA1UEBhMCVVMxCzAJBgNVBAgMAkNBMRUwEwYDVQQKDAxPcGVuIHZT
d2l0Y2gxHzAdBgNVBAsMFk9wZW4gdlN3aXRjaCBjZXJ0aWZpZXIxPzA9BgNVBAMM
NnRlc3RzL3BraS90ZXN0IGlkOjc3YmZiMTdhLWE3MjAtNGMzOC05MmI3LTc2NjAx
Nzc2NDQzNDCCASIwDQYJKoZIhvcNAQEBBQADggEPADCCAQoCggEBAKG+RHS7Ffss
mQTUT/xnJESQS41AHyuT9jg7pENIwSFUo4KRkYctoEdX38o+gAnpsjZct+IQIDgI
JaVlR/WHpdFO7aFRN3+IDdYRdrL60gbJpUE8aHNyTGEpfzgd0ca38oU1pAHwqsXE
eFRQOpzzbHY2uckLfI57xCqLInblALKxyb7FaSRJkOM4z51q7F7bpjxeSKRdFjJF
Eok7xhVDiyfFxQjVLOzc4mmzI4icYIkDhxGI07CJKKMRTJ/x7fR+Jfzt9A70EiH6
m9QOC9LS5mJl16IJ0ln4XjGpoInIzgK3lfRnTHUh0sBmcqYU5dkuPhRPHCpvGJTh
iaDKCkRw53kCAwEAATANBgkqhkiG9w0BAQ0FAAOCAQEAy3U2gBtFRBq008AKkvjL
TWWNJcMwGGag/ElGl9lF3EoH6P8YMQBahVlkUjRruRbph9QA4swXUgVZxoQlMAWB
v3cdnEP+OkBeBKrJYmUdrlgIILXU0fz9r90Fa5kOwlBPzNWqAzntK15UAtlXUBYK
dpA7mDB2rNaPNzOPnMXtLsBcp3CSZR+zhCVqDWU4yVHEu1bBdYz3x7FeHH03pXYR
4OCBIXV8zOdzPhJ+WCBy8v11JXy+wjcaNtWcDl8TGjdo0bAkPbmIB9ckztN3mnB0
kA2zmEAjNCmwaXJYUTDj+QAknB1pnx62AP52GqLtqV1VTcMceQ01APAaOZ3gvzzu
lg==
-----END CERTIFICATE-----
