Certificate Request:
    Data:
        Version: 0 (0x0)
        Subject: C=US, ST=CA, L=Palo Alto, O=Open vSwitch, OU=Open vSwitch certifier, CN=tests/pki/test id:77bfb17a-a720-4c38-92b7-766017764434
        Subject Public Key Info:
            Public Key Algorithm: rsaEncryption
                Public-Key: (2048 bit)
                Modulus:
                    00:a1:be:44:74:bb:15:fb:2c:99:04:d4:4f:fc:67:
                    24:44:90:4b:8d:40:1f:2b:93:f6:38:3b:a4:43:48:
                    c1:21:54:a3:82:91:91:87:2d:a0:47:57:df:ca:3e:
                    80:09:e9:b2:36:5c:b7:e2:10:20:38:08:25:a5:65:
                    47:f5:87:a5:d1:4e:ed:a1:51:37:7f:88:0d:d6:11:
                    76:b2:fa:d2:06:c9:a5:41:3c:68:73:72:4c:61:29:
                    7f:38:1d:d1:c6:b7:f2:85:35:a4:01:f0:aa:c5:c4:
                    78:54:50:3a:9c:f3:6c:76:36:b9:c9:0b:7c:8e:7b:
                    c4:2a:8b:22:76:e5:00:b2:b1:c9:be:c5:69:24:49:
                    90:e3:38:cf:9d:6a:ec:5e:db:a6:3c:5e:48:a4:5d:
                    16:32:45:12:89:3b:c6:15:43:8b:27:c5:c5:08:d5:
                    2c:ec:dc:e2:69:b3:23:88:9c:60:89:03:87:11:88:
                    d3:b0:89:28:a3:11:4c:9f:f1:ed:f4:7e:25:fc:ed:
                    f4:0e:f4:12:21:fa:9b:d4:0e:0b:d2:d2:e6:62:65:
                    d7:a2:09:d2:59:f8:5e:31:a9:a0:89:c8:ce:02:b7:
                    95:f4:67:4c:75:21:d2:c0:66:72:a6:14:e5:d9:2e:
                    3e:14:4f:1c:2a:6f:18:94:e1:89:a0:ca:0a:44:70:
                    e7:79
                Exponent: 65537 (0x10001)
        Attributes:
            a0:00
    Signature Algorithm: sha256WithRSAEncryption
         6b:48:fb:20:e4:f8:e5:54:e9:f9:6b:13:5e:9b:11:3a:59:9d:
         cd:21:06:a3:04:c0:24:4e:c6:4d:fc:49:07:fb:ac:5e:2f:47:
         d6:4e:e5:f7:91:e8:5f:fc:40:c4:07:63:bf:d8:e3:03:72:d9:
         b6:2b:f5:01:d7:32:1b:ee:47:ab:32:60:43:4d:98:e5:dd:1a:
         df:2f:a3:c5:c2:15:d1:e4:5a:bd:6c:39:a5:cb:a2:7d:f5:1d:
         0a:e7:4f:98:cf:84:b3:2e:7a:3a:0d:be:83:18:90:d4:df:28:
         dd:08:34:cd:f2:18:5a:8e:a2:ae:7d:58:4d:cb:d0:c2:49:9a:
         1f:04:79:51:1a:0b:76:b9:56:f8:8a:31:f8:75:a2:b8:a8:a7:
         c2:1c:62:dc:e7:59:4b:c3:6a:55:0e:83:19:81:1e:c9:59:a3:
         9b:90:f0:d2:24:03:1d:c0:36:cb:c8:36:de:57:52:cb:2a:e1:
         56:a9:1e:3b:a9:12:eb:ba:1d:b1:d4:a4:ee:63:65:f1:71:4a:
         bc:0d:1d:88:56:9b:87:0b:d0:77:a2:2f:81:28:55:b4:71:8b:
         87:59:30:f0:33:3a:70:54:66:58:c0:0e:6a:09:ba:7e:1a:42:
         7f:d5:70:59:a5:32:39:12:86:34:84:c6:1a:cb:2f:65:51:8a:
         2f:c1:eb:e9
-----BEGIN CERTIFICATE REQUEST-----
MIIC7TCCAdUCAQAwgacxCzAJBgNVBAYTAlVTMQswCQYDVQQIDAJDQTESMBAGA1UE
BwwJUGFsbyBBbHRvMRUwEwYDVQQKDAxPcGVuIHZTd2l0Y2gxHzAdBgNVBAsMFk9w
ZW4gdlN3aXRjaCBjZXJ0aWZpZXIxPzA9BgNVBAMMNnRlc3RzL3BraS90ZXN0IGlk
Ojc3YmZiMTdhLWE3MjAtNGMzOC05MmI3LTc2NjAxNzc2NDQzNDCCASIwDQYJKoZI
hvcNAQEBBQADggEPADCCAQoCggEBAKG+RHS7FfssmQTUT/xnJESQS41AHyuT9jg7
pENIwSFUo4KRkYctoEdX38o+gAnpsjZct+IQIDgIJaVlR/WHpdFO7aFRN3+IDdYR
drL60gbJpUE8aHNyTGEpfzgd0ca38oU1pAHwqsXEeFRQOpzzbHY2uckLfI57xCqL
InblALKxyb7FaSRJkOM4z51q7F7bpjxeSKRdFjJFEok7xhVDiyfFxQjVLOzc4mmz
I4icYIkDhxGI07CJKKMRTJ/x7fR+Jfzt9A70EiH6m9QOC9LS5mJl16IJ0ln4XjGp
oInIzgK3lfRnTHUh0sBmcqYU5dkuPhRPHCpvGJThiaDKCkRw53kCAwEAAaAAMA0G
CSqGSIb3DQEBCwUAA4IBAQBrSPsg5PjlVOn5axNemxE6WZ3NIQajBMAkTsZN/EkH
+6xeL0fWTuX3kehf/EDEB2O/2OMDctm2K/UB1zIb7kerMmBDTZjl3RrfL6PFwhXR
5Fq9bDmly6J99R0K50+Yz4SzLno6Db6DGJDU3yjdCDTN8hhajqKufVhNy9DCSZof
BHlRGgt2uVb4ijH4daK4qKfCHGLc51lLw2pVDoMZgR7JWaObkPDSJAMdwDbLyDbe
V1LLKuFWqR47qRLruh2x1KTuY2XxcUq8DR2IVpuHC9B3oi+BKFW0cYuHWTDwMzpw
VGZYwA5qCbp+GkJ/1XBZpTI5EoY0hMYayy9lUYovwevp
-----END CERTIFICATE REQUEST-----
