Certificate:
    Data:
        Version: 1 (0x0)
        Serial Number: 3 (0x3)
    Signature Algorithm: sha512WithRSAEncryption
        Issuer: C=US, ST=CA, O=Open vSwitch, OU=switchca, CN=OVS switchca CA Certificate (2018 Thg 10 13 16:50:05)
        Validity
            Not Before: Oct 13 09:50:06 2018 GMT
            Not After : Oct 10 09:50:06 2028 GMT
        Subject: C=US, ST=CA, O=Open vSwitch, OU=Open vSwitch certifier, CN=tests/pki/test2 id:5c1590b2-5db2-45be-998b-d9775a46629f
        Subject Public Key Info:
            Public Key Algorithm: rsaEncryption
                Public-Key: (2048 bit)
                Modulus:
                    00:9a:8c:4f:cb:44:97:e3:cc:1e:bf:84:2b:8a:dc:
                    c1:19:d2:f6:c5:15:e0:b5:81:31:37:5f:55:85:de:
                    0b:b5:61:a1:e3:35:cb:60:9c:fd:44:64:bb:94:20:
                    86:00:10:ac:68:71:6b:c7:3b:a0:a7:12:ac:a6:64:
                    dc:65:e1:4d:85:a4:8c:d0:68:f0:ce:b8:66:9d:58:
                    57:1f:3e:3e:69:38:e3:80:0d:d9:e7:58:13:3f:2e:
                    78:96:de:c3:c1:5f:9f:8d:ad:74:9c:e8:36:83:7a:
                    27:a0:4d:f0:40:36:b5:19:c2:c4:e7:3e:39:b9:64:
                    6e:b9:1a:52:27:ec:c7:14:c2:b5:f8:47:f6:09:6b:
                    0f:68:52:50:88:84:49:74:11:a3:4e:9b:3e:c9:0b:
                    3a:96:1e:3e:c7:be:bd:db:84:46:97:5b:96:11:1b:
                    90:0b:1c:52:a0:ac:02:df:f8:08:ac:cb:0e:9a:c6:
                    af:bd:f3:e1:7c:2e:a4:d5:4a:5a:ec:57:5d:8e:bd:
                    28:56:a2:b9:5f:4b:68:f9:0f:6b:0c:db:f3:d5:98:
                    dc:7b:24:c7:64:18:00:34:11:c5:5a:68:ad:28:6c:
                    e1:77:d2:fa:ad:ca:1e:82:42:b2:4f:b9:38:68:04:
                    8c:9e:f1:7c:c4:31:a1:8e:ec:98:29:09:26:fe:80:
                    86:c5
                Exponent: 65537 (0x10001)
    Signature Algorithm: sha512WithRSAEncryption
         63:b4:ef:7a:40:7d:e7:33:a8:a9:6a:19:8d:89:be:ee:02:98:
         05:07:77:08:80:c2:2c:d0:99:dd:f8:e9:5e:9c:9c:5c:39:0f:
         9c:f4:07:e3:0b:30:fb:03:f3:e9:3e:1c:c8:6f:05:bc:72:ac:
         61:bb:a2:dc:4e:78:a1:ec:8f:6d:a2:43:8d:a9:d8:e0:9e:0f:
         10:1b:97:2b:36:55:e9:ec:67:54:9a:a2:2f:76:54:f1:ad:1e:
         29:f6:46:c5:87:da:18:29:be:07:ed:0c:24:e5:5c:19:91:35:
         85:84:47:9b:02:65:1d:13:ab:d6:92:2f:cc:a6:bd:a7:94:8b:
         c9:d4:62:6a:be:53:af:ab:cf:95:a5:9a:5b:15:d6:a1:86:29:
         2c:6c:36:34:0d:8d:b7:db:dc:48:bb:bb:3b:d0:78:a5:21:7f:
         72:97:26:37:85:f5:c3:16:71:15:52:2e:c9:6a:0e:2f:5a:24:
         c1:c7:29:23:cc:2d:16:cb:e4:67:16:43:49:06:bd:8f:ef:fe:
         e1:b4:96:3b:b4:e9:6c:55:21:fb:29:37:bc:b6:d2:43:f9:ff:
         53:14:bc:a7:4c:d5:4e:87:52:61:3c:e3:9d:0b:9a:ce:2e:1d:
         ea:2f:69:51:d3:dd:e3:a2:37:d3:dc:6d:f8:ce:33:75:76:9d:
         97:d5:c0:66
-----BEGIN CERTIFICATE-----
MIIDjjCCAnYCAQMwDQYJKoZIhvcNAQENBQAwgYQxCzAJBgNVBAYTAlVTMQswCQYD
VQQIDAJDQTEVMBMGA1UECgwMT3BlbiB2U3dpdGNoMREwDwYDVQQLDAhzd2l0Y2hj
YTE+MDwGA1UEAww1T1ZTIHN3aXRjaGNhIENBIENlcnRpZmljYXRlICgyMDE4IFRo
ZyAxMCAxMyAxNjo1MDowNSkwHhcNMTgxMDEzMDk1MDA2WhcNMjgxMDEwMDk1MDA2
WjCBlDELMAkGA1UEBhMCVVMxCzAJBgNVBAgMAkNBMRUwEwYDVQQKDAxPcGVuIHZT
d2l0Y2gxHzAdBgNVBAsMFk9wZW4gdlN3aXRjaCBjZXJ0aWZpZXIxQDA+BgNVBAMM
N3Rlc3RzL3BraS90ZXN0MiBpZDo1YzE1OTBiMi01ZGIyLTQ1YmUtOTk4Yi1kOTc3
NWE0NjYyOWYwggEiMA0GCSqGSIb3DQEBAQUAA4IBDwAwggEKAoIBAQCajE/LRJfj
zB6/hCuK3MEZ0vbFFeC1gTE3X1WF3gu1YaHjNctgnP1EZLuUIIYAEKxocWvHO6Cn
EqymZNxl4U2FpIzQaPDOuGadWFcfPj5pOOOADdnnWBM/LniW3sPBX5+NrXSc6DaD
eiegTfBANrUZwsTnPjm5ZG65GlIn7McUwrX4R/YJaw9oUlCIhEl0EaNOmz7JCzqW
Hj7Hvr3bhEaXW5YRG5ALHFKgrALf+Aisyw6axq+98+F8LqTVSlrsV12OvShWorlf
S2j5D2sM2/PVmNx7JMdkGAA0EcVaaK0obOF30vqtyh6CQrJPuThoBIye8XzEMaGO
7JgpCSb+gIbFAgMBAAEwDQYJKoZIhvcNAQENBQADggEBAGO073pAfeczqKlqGY2J
vu4CmAUHdwiAwizQmd346V6cnFw5D5z0B+MLMPsD8+k+HMhvBbxyrGG7otxOeKHs
j22iQ42p2OCeDxAblys2VensZ1Saoi92VPGtHin2RsWH2hgpvgftDCTlXBmRNYWE
R5sCZR0Tq9aSL8ymvaeUi8nUYmq+U6+rz5WlmlsV1qGGKSxsNjQNjbfb3Ei7uzvQ
eKUhf3KXJjeF9cMWcRVSLslqDi9aJMHHKSPMLRbL5GcWQ0kGvY/v/uG0lju06WxV
IfspN7y20kP5/1MUvKdM1U6HUmE8450Lms4uHeovaVHT3eOiN9PcbfjOM3V2nZfV
wGY=
-----END CERTIFICATE-----
