Certificate:
    Data:
        Version: 1 (0x0)
        Serial Number: 1 (0x1)
    Signature Algorithm: sha512WithRSAEncryption
        Issuer: C=US, ST=CA, O=Open vSwitch, OU=controllerca, CN=OVS controllerca CA Certificate (2018 Thg 10 13 16:50:05)
        Validity
            Not Before: Oct 13 09:50:06 2018 GMT
            Not After : Oct 10 09:50:06 2028 GMT
        Subject: C=US, ST=CA, O=Open vSwitch, OU=controllerca, CN=OVS controllerca CA Certificate (2018 Thg 10 13 16:50:05)
        Subject Public Key Info:
            Public Key Algorithm: rsaEncryption
                Public-Key: (2048 bit)
                Modulus:
                    00:bc:a0:9b:4b:4a:88:71:72:a7:0c:e8:81:1a:f7:
                    af:83:91:1d:c7:1b:8f:4f:42:06:4c:7a:45:a8:94:
                    e9:43:03:9b:7c:90:ef:87:1f:a8:b9:cf:5d:b0:47:
                    d6:a7:0e:40:68:46:af:92:05:c9:8d:42:a4:49:15:
                    bf:1c:80:e5:07:5d:6d:76:68:b4:9d:c3:7d:49:22:
                    ec:f7:57:69:14:21:7c:32:9b:5a:00:88:39:4e:6a:
                    4a:f3:9e:51:20:d4:49:46:ba:21:54:13:97:0e:15:
                    8d:58:ee:10:4a:cc:f5:9e:b6:7b:73:38:50:6d:27:
                    ea:c7:49:68:96:77:b6:d7:ac:f1:a9:af:4d:f0:c1:
                    58:21:dc:02:62:54:4c:d5:d0:42:6b:b0:39:2c:d6:
                    a8:4b:c4:67:da:63:e9:9a:26:ba:be:9d:c3:e4:e3:
                    19:7e:83:7e:90:1f:eb:9a:11:e8:48:c3:12:6d:5a:
                    cc:dc:e8:58:0b:9b:ad:2d:b2:4c:d6:b4:3f:1e:54:
                    d3:c1:31:54:3c:d8:0b:cf:cc:34:17:ef:22:1d:ad:
                    d9:67:0d:25:70:67:c3:72:12:cd:81:a8:30:d6:00:
                    a9:d2:f2:4b:22:9f:d3:c7:39:49:23:55:a6:55:fa:
                    f7:81:aa:15:86:d8:af:0f:9e:e8:2a:2c:f3:db:7e:
                    d4:af
                Exponent: 65537 (0x10001)
    Signature Algorithm: sha512WithRSAEncryption
         19:36:7e:f2:e6:f6:a1:76:a1:e3:4d:e2:6e:84:f7:1d:a9:b7:
         ee:e0:6d:c1:54:53:cd:65:17:68:9e:8a:77:ed:ed:41:76:48:
         a2:ae:ce:24:15:ce:50:5c:3b:d8:79:39:b1:d3:6e:83:55:5c:
         25:7e:1c:5d:da:0e:73:3e:21:92:0a:0f:34:02:60:2a:44:7f:
         63:b5:ec:6c:b8:1a:60:13:25:c2:58:6a:b6:d3:c1:d2:3b:77:
         0d:ed:4d:ef:c2:91:0c:ab:68:d3:46:40:43:14:53:86:f5:5b:
         7c:4c:db:7c:bd:3a:54:34:10:17:45:d0:2c:eb:5d:f3:04:94:
         b4:d2:a4:f2:1a:03:e1:d6:a9:c9:a8:29:10:69:6e:d0:23:95:
         bf:34:ec:60:96:ba:0c:12:9b:e5:58:b4:47:55:b3:8e:76:a5:
         64:c9:6b:78:15:2b:8b:9d:cb:94:be:ba:a1:74:1f:6e:25:0f:
         16:fb:3e:e2:f9:e8:b0:97:4a:d1:2b:6c:42:77:79:7e:cc:6a:
         0c:a3:77:b6:f2:06:98:fb:92:49:3c:7f:f8:5d:a2:10:d0:78:
         b0:39:4f:9a:39:da:31:52:2f:e4:72:46:06:ab:f9:5c:6b:6a:
         b5:59:d9:b0:ec:be:aa:04:a4:d8:6e:d9:95:2d:4a:eb:40:ef:
         a5:26:81:a2
-----BEGIN CERTIFICATE-----
MIIDjjCCAnYCAQEwDQYJKoZIhvcNAQENBQAwgYwxCzAJBgNVBAYTAlVTMQswCQYD
VQQIDAJDQTEVMBMGA1UECgwMT3BlbiB2U3dpdGNoMRUwEwYDVQQLDAxjb250cm9s
bGVyY2ExQjBABgNVBAMMOU9WUyBjb250cm9sbGVyY2EgQ0EgQ2VydGlmaWNhdGUg
KDIwMTggVGhnIDEwIDEzIDE2OjUwOjA1KTAeFw0xODEwMTMwOTUwMDZaFw0yODEw
MTAwOTUwMDZaMIGMMQswCQYDVQQGEwJVUzELMAkGA1UECAwCQ0ExFTATBgNVBAoM
DE9wZW4gdlN3aXRjaDEVMBMGA1UECwwMY29udHJvbGxlcmNhMUIwQAYDVQQDDDlP
VlMgY29udHJvbGxlcmNhIENBIENlcnRpZmljYXRlICgyMDE4IFRoZyAxMCAxMyAx
Njo1MDowNSkwggEiMA0GCSqGSIb3DQEBAQUAA4IBDwAwggEKAoIBAQC8oJtLSohx
cqcM6IEa96+DkR3HG49PQgZMekWolOlDA5t8kO+HH6i5z12wR9anDkBoRq+SBcmN
QqRJFb8cgOUHXW12aLSdw31JIuz3V2kUIXwym1oAiDlOakrznlEg1ElGuiFUE5cO
FY1Y7hBKzPWetntzOFBtJ+rHSWiWd7bXrPGpr03wwVgh3AJiVEzV0EJrsDks1qhL
xGfaY+maJrq+ncPk4xl+g36QH+uaEehIwxJtWszc6FgLm60tskzWtD8eVNPBMVQ8
2AvPzDQX7yIdrdlnDSVwZ8NyEs2BqDDWAKnS8ksin9PHOUkjVaZV+veBqhWG2K8P
nugqLPPbftSvAgMBAAEwDQYJKoZIhvcNAQENBQADggEBABk2fvLm9qF2oeNN4m6E
9x2pt+7gbcFUU81lF2ieinft7UF2SKKuziQVzlBcO9h5ObHTboNVXCV+HF3aDnM+
IZIKDzQCYCpEf2O17Gy4GmATJcJYarbTwdI7dw3tTe/CkQyraNNGQEMUU4b1W3xM
23y9OlQ0EBdF0CzrXfMElLTSpPIaA+HWqcmoKRBpbtAjlb807GCWugwSm+VYtEdV
s452pWTJa3gVK4udy5S+uqF0H24lDxb7PuL56LCXStErbEJ3eX7Magyjd7byBpj7
kkk8f/hdohDQeLA5T5o52jFSL+RyRgar+VxrarVZ2bDsvqoEpNhu2ZUtSutA76Um
gaI=
-----END CERTIFICATE-----
