Certificate Request:
    Data:
        Version: 0 (0x0)
        Subject: C=US, ST=CA, L=Palo Alto, O=Open vSwitch, OU=Open vSwitch certifier, CN=tests/pki/test2 id:5c1590b2-5db2-45be-998b-d9775a46629f
        Subject Public Key Info:
            Public Key Algorithm: rsaEncryption
                Public-Key: (2048 bit)
                Modulus:
                    00:9a:8c:4f:cb:44:97:e3:cc:1e:bf:84:2b:8a:dc:
                    c1:19:d2:f6:c5:15:e0:b5:81:31:37:5f:55:85:de:
                    0b:b5:61:a1:e3:35:cb:60:9c:fd:44:64:bb:94:20:
                    86:00:10:ac:68:71:6b:c7:3b:a0:a7:12:ac:a6:64:
                    dc:65:e1:4d:85:a4:8c:d0:68:f0:ce:b8:66:9d:58:
                    57:1f:3e:3e:69:38:e3:80:0d:d9:e7:58:13:3f:2e:
                    78:96:de:c3:c1:5f:9f:8d:ad:74:9c:e8:36:83:7a:
                    27:a0:4d:f0:40:36:b5:19:c2:c4:e7:3e:39:b9:64:
                    6e:b9:1a:52:27:ec:c7:14:c2:b5:f8:47:f6:09:6b:
                    0f:68:52:50:88:84:49:74:11:a3:4e:9b:3e:c9:0b:
                    3a:96:1e:3e:c7:be:bd:db:84:46:97:5b:96:11:1b:
                    90:0b:1c:52:a0:ac:02:df:f8:08:ac:cb:0e:9a:c6:
                    af:bd:f3:e1:7c:2e:a4:d5:4a:5a:ec:57:5d:8e:bd:
                    28:56:a2:b9:5f:4b:68:f9:0f:6b:0c:db:f3:d5:98:
                    dc:7b:24:c7:64:18:00:34:11:c5:5a:68:ad:28:6c:
                    e1:77:d2:fa:ad:ca:1e:82:42:b2:4f:b9:38:68:04:
                    8c:9e:f1:7c:c4:31:a1:8e:ec:98:29:09:26:fe:80:
                    86:c5
                Exponent: 65537 (0x10001)
        Attributes:
            a0:00
    Signature Algorithm: sha256WithRSAEncryption
         7d:f8:c8:01:9d:e1:07:06:30:d0:79:94:02:51:88:6f:a0:1e:
         81:c2:32:78:78:05:a3:f1:a9:ae:f4:8e:95:4e:15:35:59:31:
         56:9e:ac:be:df:ab:8d:a2:d0:41:a0:48:58:a9:3e:75:67:b9:
         8c:c7:3b:93:21:68:b9:24:a5:0f:46:3d:62:ce:95:08:c5:dd:
         26:82:d2:e1:d4:c2:2e:86:0f:08:ef:e7:82:cb:ad:18:9f:22:
         96:8e:73:c0:2b:81:43:4b:67:23:ed:14:3f:43:50:1e:92:09:
         d5:3f:6a:e9:d3:ad:92:fa:98:53:e5:60:ec:12:79:70:04:a0:
         82:4b:c7:6d:a1:d3:02:fc:3d:4f:0d:3a:90:88:bc:67:14:45:
         d4:7b:46:c0:5d:a2:38:4d:aa:3b:f1:ad:59:d5:76:ca:08:c7:
         64:bc:91:73:15:92:b1:00:21:a9:4d:b5:65:8a:7c:dd:f2:d3:
         ba:76:f0:66:54:67:e0:68:2d:41:98:e8:bd:5f:f4:40:3c:c2:
         92:f2:f9:eb:8c:69:e5:c0:aa:f6:6a:47:37:4b:20:2b:e3:c9:
         a8:29:4c:70:84:46:3d:a9:48:d7:51:0c:8a:55:27:15:b1:a8:
         ab:85:4f:88:18:1f:75:c5:84:b6:a2:c1:29:dc:d6:98:b5:90:
         f3:2a:44:77
-----BEGIN CERTIFICATE REQUEST-----
MIIC7jCCAdYCAQAwgagxCzAJBgNVBAYTAlVTMQswCQYDVQQIDAJDQTESMBAGA1UE
BwwJUGFsbyBBbHRvMRUwEwYDVQQKDAxPcGVuIHZTd2l0Y2gxHzAdBgNVBAsMFk9w
ZW4gdlN3aXRjaCBjZXJ0aWZpZXIxQDA+BgNVBAMMN3Rlc3RzL3BraS90ZXN0MiBp
ZDo1YzE1OTBiMi01ZGIyLTQ1YmUtOTk4Yi1kOTc3NWE0NjYyOWYwggEiMA0GCSqG
SIb3DQEBAQUAA4IBDwAwggEKAoIBAQCajE/LRJfjzB6/hCuK3MEZ0vbFFeC1gTE3
X1WF3gu1YaHjNctgnP1EZLuUIIYAEKxocWvHO6CnEqymZNxl4U2FpIzQaPDOuGad
WFcfPj5pOOOADdnnWBM/LniW3sPBX5+NrXSc6DaDeiegTfBANrUZwsTnPjm5ZG65
GlIn7McUwrX4R/YJaw9oUlCIhEl0EaNOmz7JCzqWHj7Hvr3bhEaXW5YRG5ALHFKg
rALf+Aisyw6axq+98+F8LqTVSlrsV12OvShWorlfS2j5D2sM2/PVmNx7JMdkGAA0
EcVaaK0obOF30vqtyh6CQrJPuThoBIye8XzEMaGO7JgpCSb+gIbFAgMBAAGgADAN
BgkqhkiG9w0BAQsFAAOCAQEAffjIAZ3hBwYw0HmUAlGIb6AegcIyeHgFo/GprvSO
lU4VNVkxVp6svt+rjaLQQaBIWKk+dWe5jMc7kyFouSSlD0Y9Ys6VCMXdJoLS4dTC
LoYPCO/ngsutGJ8ilo5zwCuBQ0tnI+0UP0NQHpIJ1T9q6dOtkvqYU+Vg7BJ5cASg
gkvHbaHTAvw9Tw06kIi8ZxRF1HtGwF2iOE2qO/GtWdV2ygjHZLyRcxWSsQAhqU21
ZYp83fLTunbwZlRn4GgtQZjovV/0QDzCkvL564xp5cCq9mpHN0sgK+PJqClMcIRG
PalI11EMilUnFbGoq4VPiBgfdcWEtqLBKdzWmLWQ8ypEdw==
-----END CERTIFICATE REQUEST-----
